target datalayout = "e-m:e-p270:32:32-p271:32:32-p272:64:64-i64:64-i128:128-f80:128-n8:16:32:64-S128"
target triple = "x86_64-pc-linux-gnu"

%struct.H5E_stack_t = type { i64, [32 x %struct.H5E_entry_t], %struct.H5E_auto_op_t, ptr, i32 }
%struct.H5E_entry_t = type { i8, %struct.H5E_error2_t }
%struct.H5E_error2_t = type { i64, i64, i64, i32, ptr, ptr, ptr }
%struct.H5E_auto_op_t = type { i32, i8, ptr, ptr, ptr, ptr }

@H5E_init_g = external global i8, align 1
@H5_libterm_g = external global i8, align 1
@H5E_stack_g = global [1 x %struct.H5E_stack_t] zeroinitializer, align 16

; Function Attrs: nounwind uwtable
define void @H5E_pause_stack() #0 {
  %1 = alloca ptr, align 8
  call void @llvm.lifetime.start.p0(i64 8, ptr %1) #9
  store ptr @H5E_stack_g, ptr %1, align 8, !tbaa !16
  %2 = load i8, ptr @H5E_init_g, align 1, !tbaa !7, !range !9, !noundef !10
  %3 = trunc i8 %2 to i1
  br i1 %3, label %8, label %4

4:                                                ; preds = %0
  %5 = load i8, ptr @H5_libterm_g, align 1, !tbaa !7, !range !9, !noundef !10
  %6 = trunc i8 %5 to i1
  %7 = xor i1 %6, true
  br label %8

8:                                                ; preds = %4, %0
  %9 = phi i1 [ true, %0 ], [ %7, %4 ]
  %10 = xor i1 %9, true
  %11 = xor i1 %10, true
  %12 = zext i1 %11 to i32
  %13 = sext i32 %12 to i64
  %14 = call i64 @llvm.expect.i64(i64 %13, i64 1)
  %15 = icmp ne i64 %14, 0
  br i1 %15, label %16, label %21

16:                                               ; preds = %8
  %17 = load ptr, ptr %1, align 8, !tbaa !16
  %18 = getelementptr inbounds nuw %struct.H5E_stack_t, ptr %17, i32 0, i32 4
  %19 = load i32, ptr %18, align 8, !tbaa !18
  %20 = add i32 %19, 1
  store i32 %20, ptr %18, align 8, !tbaa !18
  br label %21

21:                                               ; preds = %16, %8
  call void @llvm.lifetime.end.p0(i64 8, ptr %1) #9
  ret void
}