; Function Attrs: mustprogress nofree norecurse nosync nounwind willreturn memory(readwrite, argmem: none, inaccessiblemem: none) uwtable
define void @H5E_pause_stack() local_unnamed_addr #12 {
  %1 = load i8, ptr @H5E_init_g, align 1, !tbaa !3, !range !7, !noundef !8
  %2 = trunc nuw i8 %1 to i1
  %3 = load i8, ptr @H5_libterm_g, align 1, !range !7
  %4 = trunc nuw i8 %3 to i1
  %5 = xor i1 %4, true
  %6 = select i1 %2, i1 true, i1 %5
  br i1 %6, label %7, label %10, !prof !9

7:                                                ; preds = %0
  %8 = load i32, ptr getelementptr inbounds nuw (i8, ptr @H5E_stack_g, i64 2104), align 8, !tbaa !86
  %9 = add i32 %8, 1
  store i32 %9, ptr getelementptr inbounds nuw (i8, ptr @H5E_stack_g, i64 2104), align 8, !tbaa !86
  br label %10

10:                                               ; preds = %7, %0
  ret void
}